target datalayout = "e-m:e-p270:32:32-p271:32:32-p272:64:64-i64:64-i128:128-f80:128-n8:16:32:64-S128"
target triple = "x86_64-pc-linux-gnu"

%struct.H5P_genclass_t = type { ptr, ptr, i32, i64, i32, i32, i32, i8, i32, ptr, ptr, ptr, ptr, ptr, ptr, ptr }

@H5P_init_g = external global i8, align 1
@H5_libterm_g = external global i8, align 1
@.str.7 = private unnamed_addr constant [100 x i8] c"generated/home/dtcxzyw/WorkSpace/Projects/compilers/llvm-opt-benchmark/bench/hdf5/hdf5/src/H5Pint.c\00", align 1
@H5E_RESOURCE_g = external global i64, align 8
@H5E_NOSPACE_g = external global i64, align 8
@__func__.H5P__get_class_path = private unnamed_addr constant [20 x i8] c"H5P__get_class_path\00", align 1
@.str.70 = private unnamed_addr constant [40 x i8] c"memory allocation failed for class name\00", align 1
@.str.71 = private unnamed_addr constant [6 x i8] c"%s/%s\00", align 1

; Function Attrs: nounwind uwtable
define ptr @H5P__get_class_path(ptr noundef %0) #0 {
  %2 = alloca ptr, align 8
  %3 = alloca ptr, align 8
  %4 = alloca ptr, align 8
  %5 = alloca i8, align 1
  %6 = alloca ptr, align 8
  %7 = alloca i64, align 8
  %8 = alloca i32, align 4
  store ptr %0, ptr %3, align 8, !tbaa !22
  call void @llvm.lifetime.start.p0(i64 8, ptr %4) #8
  store ptr null, ptr %4, align 8, !tbaa !39
  call void @llvm.lifetime.start.p0(i64 1, ptr %5) #8
  store i8 0, ptr %5, align 1, !tbaa !7
  %9 = load i8, ptr @H5P_init_g, align 1, !tbaa !7, !range !9, !noundef !10
  %10 = trunc i8 %9 to i1
  br i1 %10, label %15, label %11

11:                                               ; preds = %1
  %12 = load i8, ptr @H5_libterm_g, align 1, !tbaa !7, !range !9, !noundef !10
  %13 = trunc i8 %12 to i1
  %14 = xor i1 %13, true
  br label %15

15:                                               ; preds = %11, %1
  %16 = phi i1 [ true, %1 ], [ %14, %11 ]
  %17 = xor i1 %16, true
  %18 = xor i1 %17, true
  %19 = zext i1 %18 to i32
  %20 = sext i32 %19 to i64
  %21 = call i64 @llvm.expect.i64(i64 %20, i64 1)
  %22 = icmp ne i64 %21, 0
  br i1 %22, label %23, label %96

23:                                               ; preds = %15
  %24 = load ptr, ptr %3, align 8, !tbaa !22
  %25 = getelementptr inbounds nuw %struct.H5P_genclass_t, ptr %24, i32 0, i32 0
  %26 = load ptr, ptr %25, align 8, !tbaa !41
  %27 = icmp ne ptr %26, null
  br i1 %27, label %28, label %89

28:                                               ; preds = %23
  call void @llvm.lifetime.start.p0(i64 8, ptr %6) #8
  %29 = load ptr, ptr %3, align 8, !tbaa !22
  %30 = getelementptr inbounds nuw %struct.H5P_genclass_t, ptr %29, i32 0, i32 0
  %31 = load ptr, ptr %30, align 8, !tbaa !41
  %32 = call ptr @H5P__get_class_path(ptr noundef %31)
  store ptr %32, ptr %6, align 8, !tbaa !39
  %33 = load ptr, ptr %6, align 8, !tbaa !39
  %34 = icmp ne ptr %33, null
  br i1 %34, label %35, label %80

35:                                               ; preds = %28
  call void @llvm.lifetime.start.p0(i64 8, ptr %7) #8
  %36 = load ptr, ptr %6, align 8, !tbaa !39
  %37 = call i64 @strlen(ptr noundef %36) #10
  %38 = load ptr, ptr %3, align 8, !tbaa !22
  %39 = getelementptr inbounds nuw %struct.H5P_genclass_t, ptr %38, i32 0, i32 1
  %40 = load ptr, ptr %39, align 8, !tbaa !44
  %41 = call i64 @strlen(ptr noundef %40) #10
  %42 = add i64 %37, %41
  %43 = add i64 %42, 1
  %44 = add i64 %43, 3
  store i64 %44, ptr %7, align 8, !tbaa !11
  %45 = load i64, ptr %7, align 8, !tbaa !11
  %46 = call noalias ptr @malloc(i64 noundef %45) #9
  store ptr %46, ptr %4, align 8, !tbaa !39
  %47 = icmp eq ptr null, %46
  br i1 %47, label %48, label %67

48:                                               ; preds = %35
  br label %49

49:                                               ; preds = %48
  br label %50

50:                                               ; preds = %49
  br label %51

51:                                               ; preds = %50
  %52 = load i64, ptr @H5E_RESOURCE_g, align 8, !tbaa !11
  %53 = load i64, ptr @H5E_NOSPACE_g, align 8, !tbaa !11
  %54 = call i32 (ptr, ptr, i32, i64, i64, ptr, ...) @H5E_printf_stack(ptr noundef @.str.7, ptr noundef @__func__.H5P__get_class_path, i32 noundef 5527, i64 noundef %52, i64 noundef %53, ptr noundef @.str.70)
  br label %55

55:                                               ; preds = %51
  br label %56

56:                                               ; preds = %55
  store i8 1, ptr %5, align 1, !tbaa !7
  %57 = load i8, ptr %5, align 1, !tbaa !7, !range !9, !noundef !10
  %58 = trunc i8 %57 to i1
  %59 = zext i1 %58 to i8
  store i8 %59, ptr %5, align 1, !tbaa !7
  br label %60

60:                                               ; preds = %56
  br label %61

61:                                               ; preds = %60
  br label %62

62:                                               ; preds = %61
  store ptr null, ptr %4, align 8, !tbaa !39
  store i32 10, ptr %8, align 4
  br label %77

63:                                               ; No predecessors!
  br label %64

64:                                               ; preds = %63
  br label %65

65:                                               ; preds = %64
  br label %66

66:                                               ; preds = %65
  br label %67

67:                                               ; preds = %66, %35
  %68 = load ptr, ptr %4, align 8, !tbaa !39
  %69 = load i64, ptr %7, align 8, !tbaa !11
  %70 = load ptr, ptr %6, align 8, !tbaa !39
  %71 = load ptr, ptr %3, align 8, !tbaa !22
  %72 = getelementptr inbounds nuw %struct.H5P_genclass_t, ptr %71, i32 0, i32 1
  %73 = load ptr, ptr %72, align 8, !tbaa !44
  %74 = call i32 (ptr, i64, ptr, ...) @snprintf(ptr noundef %68, i64 noundef %69, ptr noundef @.str.71, ptr noundef %70, ptr noundef %73) #8
  %75 = load ptr, ptr %6, align 8, !tbaa !39
  %76 = call ptr @H5MM_xfree(ptr noundef %75)
  store i32 0, ptr %8, align 4
  br label %77

77:                                               ; preds = %62, %67
  call void @llvm.lifetime.end.p0(i64 8, ptr %7) #8
  %78 = load i32, ptr %8, align 4
  switch i32 %78, label %86 [
    i32 0, label %79
  ]

79:                                               ; preds = %77
  br label %85

80:                                               ; preds = %28
  %81 = load ptr, ptr %3, align 8, !tbaa !22
  %82 = getelementptr inbounds nuw %struct.H5P_genclass_t, ptr %81, i32 0, i32 1
  %83 = load ptr, ptr %82, align 8, !tbaa !44
  %84 = call noalias ptr @H5MM_xstrdup(ptr noundef %83)
  store ptr %84, ptr %4, align 8, !tbaa !39
  br label %85

85:                                               ; preds = %80, %79
  store i32 0, ptr %8, align 4
  br label %86

86:                                               ; preds = %85, %77
  call void @llvm.lifetime.end.p0(i64 8, ptr %6) #8
  %87 = load i32, ptr %8, align 4
  switch i32 %87, label %98 [
    i32 0, label %88
    i32 10, label %95
  ]

88:                                               ; preds = %86
  br label %94

89:                                               ; preds = %23
  %90 = load ptr, ptr %3, align 8, !tbaa !22
  %91 = getelementptr inbounds nuw %struct.H5P_genclass_t, ptr %90, i32 0, i32 1
  %92 = load ptr, ptr %91, align 8, !tbaa !44
  %93 = call noalias ptr @H5MM_xstrdup(ptr noundef %92)
  store ptr %93, ptr %4, align 8, !tbaa !39
  br label %94

94:                                               ; preds = %89, %88
  br label %95

95:                                               ; preds = %94, %86
  br label %96

96:                                               ; preds = %95, %15
  %97 = load ptr, ptr %4, align 8, !tbaa !39
  store ptr %97, ptr %2, align 8
  store i32 1, ptr %8, align 4
  br label %98

98:                                               ; preds = %96, %86
  call void @llvm.lifetime.end.p0(i64 1, ptr %5) #8
  call void @llvm.lifetime.end.p0(i64 8, ptr %4) #8
  %99 = load ptr, ptr %2, align 8
  ret ptr %99
}