; Function Attrs: nounwind uwtable
define noalias ptr @H5P__get_class_path(ptr noundef readonly captures(none) %0) local_unnamed_addr #0 {
  %2 = load i8, ptr @H5P_init_g, align 1, !tbaa !3, !range !7, !noundef !8
  %3 = trunc nuw i8 %2 to i1
  %4 = load i8, ptr @H5_libterm_g, align 1, !range !7
  %5 = trunc nuw i8 %4 to i1
  %6 = xor i1 %5, true
  %7 = select i1 %3, i1 true, i1 %6
  br i1 %7, label %8, label %35, !prof !9

8:                                                ; preds = %1
  %9 = load ptr, ptr %0, align 8, !tbaa !38
  %.not = icmp eq ptr %9, null
  br i1 %.not, label %31, label %10

10:                                               ; preds = %8
  %11 = tail call ptr @H5P__get_class_path(ptr noundef nonnull %9)
  %.not23 = icmp eq ptr %11, null
  br i1 %.not23, label %27, label %12

12:                                               ; preds = %10
  %13 = tail call i64 @strlen(ptr noundef nonnull dereferenceable(1) %11) #16
  %14 = getelementptr inbounds nuw i8, ptr %0, i64 8
  %15 = load ptr, ptr %14, align 8, !tbaa !41
  %16 = tail call i64 @strlen(ptr noundef nonnull dereferenceable(1) %15) #16
  %17 = add i64 %13, 4
  %18 = add i64 %17, %16
  %19 = tail call noalias ptr @malloc(i64 noundef %18) #15
  %.not24 = icmp eq ptr %19, null
  br i1 %.not24, label %20, label %24

20:                                               ; preds = %12
  %21 = load i64, ptr @H5E_RESOURCE_g, align 8, !tbaa !10
  %22 = load i64, ptr @H5E_NOSPACE_g, align 8, !tbaa !10
  %23 = tail call i32 (ptr, ptr, i32, i64, i64, ptr, ...) @H5E_printf_stack(ptr noundef nonnull @.str.7, ptr noundef nonnull @__func__.H5P__get_class_path, i32 noundef 5527, i64 noundef %21, i64 noundef %22, ptr noundef nonnull @.str.70) #14
  br label %35

24:                                               ; preds = %12
  %25 = tail call i32 (ptr, i64, ptr, ...) @snprintf(ptr noundef nonnull %19, i64 noundef %18, ptr noundef nonnull @.str.71, ptr noundef nonnull %11, ptr noundef nonnull %15) #14
  %26 = tail call ptr @H5MM_xfree(ptr noundef nonnull %11) #14
  br label %35

27:                                               ; preds = %10
  %28 = getelementptr inbounds nuw i8, ptr %0, i64 8
  %29 = load ptr, ptr %28, align 8, !tbaa !41
  %30 = tail call noalias ptr @H5MM_xstrdup(ptr noundef %29) #14
  br label %35

31:                                               ; preds = %8
  %32 = getelementptr inbounds nuw i8, ptr %0, i64 8
  %33 = load ptr, ptr %32, align 8, !tbaa !41
  %34 = tail call noalias ptr @H5MM_xstrdup(ptr noundef %33) #14
  br label %35

35:                                               ; preds = %20, %24, %27, %1, %31
  %.017 = phi ptr [ %34, %31 ], [ null, %1 ], [ %30, %27 ], [ null, %20 ], [ %19, %24 ]
  ret ptr %.017
}